target datalayout = "e-m:e-p270:32:32-p271:32:32-p272:64:64-i64:64-i128:128-f80:128-n8:16:32:64-S128"
target triple = "x86_64-pc-linux-gnu"

%struct.anon = type { i32, i32 }

@.str.4 = private unnamed_addr constant [38 x i8] c"../openssl/test/ctype_internal_test.c\00", align 1
@.str.31 = private unnamed_addr constant [31 x i8] c"ossl_toupper(case_change[n].l)\00", align 1
@.str.32 = private unnamed_addr constant [17 x i8] c"case_change[n].u\00", align 1
@.str.33 = private unnamed_addr constant [31 x i8] c"ossl_toupper(case_change[n].u)\00", align 1

; Function Attrs: nounwind uwtable
define internal i32 @test_ctype_toupper(i32 noundef %0) #0 {
  %2 = alloca i32, align 4
  store i32 %0, ptr %2, align 4, !tbaa !4
  %3 = load i32, ptr %2, align 4, !tbaa !4
  %4 = sext i32 %3 to i64
  %5 = getelementptr inbounds [8 x %struct.anon], ptr @case_change, i64 0, i64 %4
  %6 = getelementptr inbounds nuw %struct.anon, ptr %5, i32 0, i32 1
  %7 = load i32, ptr %6, align 4, !tbaa !13
  %8 = call i32 @ossl_toupper(i32 noundef %7)
  %9 = load i32, ptr %2, align 4, !tbaa !4
  %10 = sext i32 %9 to i64
  %11 = getelementptr inbounds [8 x %struct.anon], ptr @case_change, i64 0, i64 %10
  %12 = getelementptr inbounds nuw %struct.anon, ptr %11, i32 0, i32 0
  %13 = load i32, ptr %12, align 8, !tbaa !15
  %14 = call i32 @test_int_eq(ptr noundef @.str.4, i32 noundef 68, ptr noundef @.str.31, ptr noundef @.str.32, i32 noundef %8, i32 noundef %13)
  %15 = icmp ne i32 %14, 0
  br i1 %15, label %16, label %30

16:                                               ; preds = %1
  %17 = load i32, ptr %2, align 4, !tbaa !4
  %18 = sext i32 %17 to i64
  %19 = getelementptr inbounds [8 x %struct.anon], ptr @case_change, i64 0, i64 %18
  %20 = getelementptr inbounds nuw %struct.anon, ptr %19, i32 0, i32 0
  %21 = load i32, ptr %20, align 8, !tbaa !15
  %22 = call i32 @ossl_toupper(i32 noundef %21)
  %23 = load i32, ptr %2, align 4, !tbaa !4
  %24 = sext i32 %23 to i64
  %25 = getelementptr inbounds [8 x %struct.anon], ptr @case_change, i64 0, i64 %24
  %26 = getelementptr inbounds nuw %struct.anon, ptr %25, i32 0, i32 0
  %27 = load i32, ptr %26, align 8, !tbaa !15
  %28 = call i32 @test_int_eq(ptr noundef @.str.4, i32 noundef 69, ptr noundef @.str.33, ptr noundef @.str.32, i32 noundef %22, i32 noundef %27)
  %29 = icmp ne i32 %28, 0
  br label %30

30:                                               ; preds = %16, %1
  %31 = phi i1 [ false, %1 ], [ %29, %16 ]
  %32 = zext i1 %31 to i32
  ret i32 %32
}